; Function Attrs: mustprogress nounwind uwtable
define dso_local void @_ZN4llvm15MachineFunction28substituteDebugValuesForInstERKNS_12MachineInstrERS1_j(ptr noundef nonnull align 8 dereferenceable(1041) %0, ptr noundef nonnull readonly align 8 captures(none) dereferenceable(70) %1, ptr noundef nonnull align 8 dereferenceable(70) %2, i32 noundef %3) local_unnamed_addr #0 align 2 {
  %5 = alloca %"class.llvm::MachineFunction::DebugSubstitution", align 8
  %6 = getelementptr inbounds nuw i8, ptr %1, i64 64
  %7 = load i32, ptr %6, align 8
  %.not = icmp eq i32 %7, 0
  br i1 %.not, label %.loopexit, label %8

8:                                                ; preds = %4
  %9 = getelementptr inbounds nuw i8, ptr %1, i64 40
  %10 = load i24, ptr %9, align 8
  %11 = zext i24 %10 to i32
  %.sroa.speculated = tail call i32 @llvm.umin.i32(i32 %3, i32 %11)
  %.not25 = icmp eq i32 %.sroa.speculated, 0
  br i1 %.not25, label %.loopexit, label %.lr.ph

.lr.ph:                                           ; preds = %8
  %12 = getelementptr inbounds nuw i8, ptr %1, i64 32
  %.sroa.0.0.insert.ext.i = zext i32 %7 to i64
  %13 = getelementptr inbounds nuw i8, ptr %0, i64 840
  %14 = getelementptr inbounds nuw i8, ptr %5, i64 8
  %15 = getelementptr inbounds nuw i8, ptr %5, i64 16
  %wide.trip.count = zext nneg i32 %.sroa.speculated to i64
  br label %16

16:                                               ; preds = %.lr.ph, %23
  %indvars.iv = phi i64 [ 0, %.lr.ph ], [ %indvars.iv.next, %23 ]
  %17 = load ptr, ptr %12, align 8
  %18 = getelementptr inbounds nuw %"class.llvm::MachineOperand", ptr %17, i64 %indvars.iv
  %19 = load i32, ptr %18, align 8
  %20 = and i32 %19, 16777471
  %or.cond = icmp eq i32 %20, 16777216
  br i1 %or.cond, label %21, label %23

21:                                               ; preds = %16
  %22 = call noundef i32 @_ZN4llvm12MachineInstr16getDebugInstrNumEv(ptr noundef nonnull align 8 dereferenceable(70) %2) #25
  %.sroa.2.0.insert.shift.i = shl nuw i64 %indvars.iv, 32
  %.sroa.0.0.insert.insert.i = or disjoint i64 %.sroa.2.0.insert.shift.i, %.sroa.0.0.insert.ext.i
  %.sroa.0.0.insert.ext.i11 = zext i32 %22 to i64
  %.sroa.0.0.insert.insert.i12 = or disjoint i64 %.sroa.2.0.insert.shift.i, %.sroa.0.0.insert.ext.i11
  call void @llvm.lifetime.start.p0(i64 20, ptr nonnull %5)
  store i64 %.sroa.0.0.insert.insert.i, ptr %5, align 8
  store i64 %.sroa.0.0.insert.insert.i12, ptr %14, align 8
  store i32 0, ptr %15, align 8
  call void @_ZN4llvm23SmallVectorTemplateBaseINS_15MachineFunction17DebugSubstitutionELb1EE9push_backERKS2_(ptr noundef nonnull align 8 dereferenceable(16) %13, ptr noundef nonnull align 4 dereferenceable(20) %5)
  call void @llvm.lifetime.end.p0(i64 20, ptr nonnull %5)
  br label %23

23:                                               ; preds = %16, %21
  %indvars.iv.next = add nuw nsw i64 %indvars.iv, 1
  %exitcond.not = icmp eq i64 %indvars.iv.next, %wide.trip.count
  br i1 %exitcond.not, label %.loopexit, label %16, !llvm.loop !63

.loopexit:                                        ; preds = %23, %8, %4
  ret void
}